target datalayout = "e-m:e-p270:32:32-p271:32:32-p272:64:64-i64:64-i128:128-f80:128-n8:16:32:64-S128"
target triple = "x86_64-pc-linux-gnu"

%struct.stat = type { i64, i64, i64, i32, i32, i32, i32, i64, i64, i64, i64, %struct.timespec, %struct.timespec, %struct.timespec, [3 x i64] }
%struct.timespec = type { i64, i64 }

@.str.30 = private unnamed_addr constant [11 x i8] c"job_info.c\00", align 1
@__func__._read_file = private unnamed_addr constant [11 x i8] c"_read_file\00", align 1

; Function Attrs: nounwind uwtable
define internal ptr @_read_file(ptr noundef %0) #0 {
  %2 = alloca ptr, align 8
  %3 = alloca ptr, align 8
  %4 = alloca i32, align 4
  %5 = alloca i32, align 4
  %6 = alloca i32, align 4
  %7 = alloca i64, align 8
  %8 = alloca %struct.stat, align 8
  %9 = alloca ptr, align 8
  %10 = alloca i32, align 4
  store ptr %0, ptr %3, align 8
  call void @llvm.lifetime.start.p0(i64 4, ptr %4) #11
  call void @llvm.lifetime.start.p0(i64 4, ptr %5) #11
  call void @llvm.lifetime.start.p0(i64 4, ptr %6) #11
  store i32 0, ptr %6, align 4
  call void @llvm.lifetime.start.p0(i64 8, ptr %7) #11
  call void @llvm.lifetime.start.p0(i64 144, ptr %8) #11
  call void @llvm.lifetime.start.p0(i64 8, ptr %9) #11
  %11 = load ptr, ptr %3, align 8
  %12 = call i32 (ptr, i32, ...) @open(ptr noundef %11, i32 noundef 0)
  store i32 %12, ptr %4, align 4
  %13 = load i32, ptr %4, align 4
  %14 = icmp slt i32 %13, 0
  br i1 %14, label %15, label %16

15:                                               ; preds = %1
  store ptr null, ptr %2, align 8
  store i32 1, ptr %10, align 4
  br label %72

16:                                               ; preds = %1
  %17 = load i32, ptr %4, align 4
  %18 = call i32 @fstat(i32 noundef %17, ptr noundef %8) #11
  %19 = icmp ne i32 %18, 0
  br i1 %19, label %20, label %23

20:                                               ; preds = %16
  %21 = load i32, ptr %4, align 4
  %22 = call i32 @close(i32 noundef %21)
  store ptr null, ptr %2, align 8
  store i32 1, ptr %10, align 4
  br label %72

23:                                               ; preds = %16
  %24 = getelementptr inbounds nuw %struct.stat, ptr %8, i32 0, i32 8
  %25 = load i64, ptr %24, align 8
  %26 = trunc i64 %25 to i32
  store i32 %26, ptr %5, align 4
  %27 = load i32, ptr %5, align 4
  %28 = add nsw i32 %27, 1
  %29 = sext i32 %28 to i64
  %30 = call ptr @slurm_xcalloc(i64 noundef 1, i64 noundef %29, i1 noundef zeroext true, i1 noundef zeroext false, ptr noundef @.str.30, i32 noundef 498, ptr noundef @__func__._read_file)
  store ptr %30, ptr %9, align 8
  br label %31

31:                                               ; preds = %58, %56, %23
  %32 = load i32, ptr %6, align 4
  %33 = load i32, ptr %5, align 4
  %34 = icmp slt i32 %32, %33
  br i1 %34, label %35, label %64

35:                                               ; preds = %31
  %36 = load i32, ptr %4, align 4
  %37 = load ptr, ptr %9, align 8
  %38 = load i32, ptr %6, align 4
  %39 = sext i32 %38 to i64
  %40 = getelementptr inbounds i8, ptr %37, i64 %39
  %41 = load i32, ptr %5, align 4
  %42 = load i32, ptr %6, align 4
  %43 = sub nsw i32 %41, %42
  %44 = sext i32 %43 to i64
  %45 = call i64 @read(i32 noundef %36, ptr noundef %40, i64 noundef %44)
  store i64 %45, ptr %7, align 8
  %46 = load i64, ptr %7, align 8
  %47 = icmp slt i64 %46, 0
  br i1 %47, label %48, label %58

48:                                               ; preds = %35
  %49 = call ptr @__errno_location() #12
  %50 = load i32, ptr %49, align 4
  %51 = icmp eq i32 %50, 11
  br i1 %51, label %56, label %52

52:                                               ; preds = %48
  %53 = call ptr @__errno_location() #12
  %54 = load i32, ptr %53, align 4
  %55 = icmp eq i32 %54, 4
  br i1 %55, label %56, label %57

56:                                               ; preds = %52, %48
  br label %31, !llvm.loop !38

57:                                               ; preds = %52
  call void @slurm_xfree(ptr noundef %9)
  br label %64

58:                                               ; preds = %35
  %59 = load i64, ptr %7, align 8
  %60 = load i32, ptr %6, align 4
  %61 = sext i32 %60 to i64
  %62 = add nsw i64 %61, %59
  %63 = trunc i64 %62 to i32
  store i32 %63, ptr %6, align 4
  br label %31, !llvm.loop !38

64:                                               ; preds = %57, %31
  %65 = load i32, ptr %4, align 4
  %66 = call i32 @close(i32 noundef %65)
  %67 = load ptr, ptr %9, align 8
  %68 = load i32, ptr %5, align 4
  %69 = sext i32 %68 to i64
  %70 = getelementptr inbounds i8, ptr %67, i64 %69
  store i8 0, ptr %70, align 1
  %71 = load ptr, ptr %9, align 8
  store ptr %71, ptr %2, align 8
  store i32 1, ptr %10, align 4
  br label %72

72:                                               ; preds = %64, %20, %15
  call void @llvm.lifetime.end.p0(i64 8, ptr %9) #11
  call void @llvm.lifetime.end.p0(i64 144, ptr %8) #11
  call void @llvm.lifetime.end.p0(i64 8, ptr %7) #11
  call void @llvm.lifetime.end.p0(i64 4, ptr %6) #11
  call void @llvm.lifetime.end.p0(i64 4, ptr %5) #11
  call void @llvm.lifetime.end.p0(i64 4, ptr %4) #11
  %73 = load ptr, ptr %2, align 8
  ret ptr %73
}