; Function Attrs: nounwind uwtable
define internal fastcc ptr @_read_file(ptr noundef readonly captures(none) %0) unnamed_addr #0 {
  %2 = alloca %struct.stat, align 8
  %3 = alloca ptr, align 8
  call void @llvm.lifetime.start.p0(i64 144, ptr nonnull %2) #16
  call void @llvm.lifetime.start.p0(i64 8, ptr nonnull %3) #16
  %4 = tail call i32 (ptr, i32, ...) @open(ptr noundef %0, i32 noundef 0) #16
  %5 = icmp slt i32 %4, 0
  br i1 %5, label %38, label %6

6:                                                ; preds = %1
  %7 = call i32 @fstat(i32 noundef %4, ptr noundef nonnull %2) #16
  %.not = icmp eq i32 %7, 0
  br i1 %.not, label %10, label %8

8:                                                ; preds = %6
  %9 = tail call i32 @close(i32 noundef %4) #16
  br label %38

10:                                               ; preds = %6
  %11 = getelementptr inbounds nuw i8, ptr %2, i64 48
  %12 = load i64, ptr %11, align 8
  %13 = trunc i64 %12 to i32
  %14 = shl i64 %12, 32
  %sext = add i64 %14, 4294967296
  %15 = ashr exact i64 %sext, 32
  %16 = tail call ptr @slurm_xcalloc(i64 noundef 1, i64 noundef %15, i1 noundef zeroext true, i1 noundef zeroext false, ptr noundef nonnull @.str.30, i32 noundef 498, ptr noundef nonnull @__func__._read_file) #16
  store ptr %16, ptr %3, align 8
  %17 = icmp sgt i32 %13, 0
  br i1 %17, label %.lr.ph.split.us, label %.loopexit

.lr.ph.split.us:                                  ; preds = %10, %.outer
  %.016.ph26 = phi i32 [ %31, %.outer ], [ 0, %10 ]
  %18 = sext i32 %.016.ph26 to i64
  %19 = getelementptr inbounds i8, ptr %16, i64 %18
  %20 = sub nsw i32 %13, %.016.ph26
  %21 = sext i32 %20 to i64
  %22 = tail call i64 @read(i32 noundef %4, ptr noundef %19, i64 noundef %21) #16
  %23 = icmp slt i64 %22, 0
  br i1 %23, label %.lr.ph25, label %.outer

.lr.ph25:                                         ; preds = %.lr.ph.split.us
  %24 = tail call ptr @__errno_location() #17
  br label %25

25:                                               ; preds = %.lr.ph25, %27
  %26 = load i32, ptr %24, align 4
  switch i32 %26, label %.split24.us [
    i32 11, label %27
    i32 4, label %27
  ]

27:                                               ; preds = %25, %25
  %28 = tail call i64 @read(i32 noundef %4, ptr noundef %19, i64 noundef %21) #16
  %29 = icmp slt i64 %28, 0
  br i1 %29, label %25, label %.outer

.split24.us:                                      ; preds = %25
  call void @slurm_xfree(ptr noundef nonnull %3) #16
  br label %.loopexit

.outer:                                           ; preds = %27, %.lr.ph.split.us
  %.us-phi = phi i64 [ %22, %.lr.ph.split.us ], [ %28, %27 ]
  %30 = trunc i64 %.us-phi to i32
  %31 = add i32 %.016.ph26, %30
  %32 = icmp slt i32 %31, %13
  br i1 %32, label %.lr.ph.split.us, label %.loopexit, !llvm.loop !44

.loopexit:                                        ; preds = %.outer, %10, %.split24.us
  %33 = call i32 @close(i32 noundef %4) #16
  %34 = load ptr, ptr %3, align 8
  %35 = ashr exact i64 %14, 32
  %36 = getelementptr inbounds i8, ptr %34, i64 %35
  store i8 0, ptr %36, align 1
  %37 = load ptr, ptr %3, align 8
  br label %38

38:                                               ; preds = %1, %.loopexit, %8
  %.0 = phi ptr [ null, %8 ], [ %37, %.loopexit ], [ null, %1 ]
  call void @llvm.lifetime.end.p0(i64 8, ptr nonnull %3) #16
  call void @llvm.lifetime.end.p0(i64 144, ptr nonnull %2) #16
  ret ptr %.0
}